target datalayout = "e-m:e-p270:32:32-p271:32:32-p272:64:64-i64:64-i128:128-f80:128-n8:16:32:64-S128"
target triple = "x86_64-pc-linux-gnu"

%"struct.pkpy::TokenDeserializer" = type { ptr, ptr }

; Function Attrs: mustprogress nounwind uwtable
define noundef i64 @_ZN4pkpy17TokenDeserializer9read_uintEc(ptr noundef nonnull align 8 dereferenceable(16) %0, i8 noundef signext %1) #5 align 2 {
  %3 = alloca ptr, align 8
  %4 = alloca i8, align 1
  %5 = alloca i64, align 8
  store ptr %0, ptr %3, align 8
  store i8 %1, ptr %4, align 1
  %6 = load ptr, ptr %3, align 8
  store i64 0, ptr %5, align 8
  br label %7

7:                                                ; preds = %15, %2
  %8 = getelementptr inbounds %"struct.pkpy::TokenDeserializer", ptr %6, i32 0, i32 0
  %9 = load ptr, ptr %8, align 8
  %10 = load i8, ptr %9, align 1
  %11 = sext i8 %10 to i32
  %12 = load i8, ptr %4, align 1
  %13 = sext i8 %12 to i32
  %14 = icmp ne i32 %11, %13
  br i1 %14, label %15, label %28

15:                                               ; preds = %7
  %16 = load i64, ptr %5, align 8
  %17 = mul nsw i64 %16, 10
  %18 = getelementptr inbounds %"struct.pkpy::TokenDeserializer", ptr %6, i32 0, i32 0
  %19 = load ptr, ptr %18, align 8
  %20 = load i8, ptr %19, align 1
  %21 = sext i8 %20 to i32
  %22 = sub nsw i32 %21, 48
  %23 = sext i32 %22 to i64
  %24 = add nsw i64 %17, %23
  store i64 %24, ptr %5, align 8
  %25 = getelementptr inbounds %"struct.pkpy::TokenDeserializer", ptr %6, i32 0, i32 0
  %26 = load ptr, ptr %25, align 8
  %27 = getelementptr inbounds i8, ptr %26, i32 1
  store ptr %27, ptr %25, align 8
  br label %7, !llvm.loop !40

28:                                               ; preds = %7
  %29 = getelementptr inbounds %"struct.pkpy::TokenDeserializer", ptr %6, i32 0, i32 0
  %30 = load ptr, ptr %29, align 8
  %31 = getelementptr inbounds i8, ptr %30, i32 1
  store ptr %31, ptr %29, align 8
  %32 = load i64, ptr %5, align 8
  ret i64 %32
}