; Function Attrs: mustprogress nofree norecurse nosync nounwind memory(read, argmem: readwrite, inaccessiblemem: none) uwtable
define noundef i64 @_ZN4pkpy17TokenDeserializer9read_uintEc(ptr noundef nonnull align 8 captures(none) dereferenceable(16) %0, i8 noundef signext %1) local_unnamed_addr #9 align 2 {
  %.promoted = load ptr, ptr %0, align 8
  %3 = load i8, ptr %.promoted, align 1
  %.not4 = icmp eq i8 %3, %1
  br i1 %.not4, label %._crit_edge, label %.lr.ph

.lr.ph:                                           ; preds = %2, %.lr.ph
  %4 = phi i8 [ %11, %.lr.ph ], [ %3, %2 ]
  %.05 = phi i64 [ %9, %.lr.ph ], [ 0, %2 ]
  %5 = phi ptr [ %10, %.lr.ph ], [ %.promoted, %2 ]
  %6 = sext i8 %4 to i64
  %7 = mul nsw i64 %.05, 10
  %8 = add i64 %7, -48
  %9 = add i64 %8, %6
  %10 = getelementptr inbounds nuw i8, ptr %5, i64 1
  store ptr %10, ptr %0, align 8
  %11 = load i8, ptr %10, align 1
  %.not = icmp eq i8 %11, %1
  br i1 %.not, label %._crit_edge, label %.lr.ph, !llvm.loop !334

._crit_edge:                                      ; preds = %.lr.ph, %2
  %.0.lcssa = phi i64 [ 0, %2 ], [ %9, %.lr.ph ]
  %.lcssa = phi ptr [ %.promoted, %2 ], [ %10, %.lr.ph ]
  %12 = getelementptr inbounds nuw i8, ptr %.lcssa, i64 1
  store ptr %12, ptr %0, align 8
  ret i64 %.0.lcssa
}